(dp0
VMatteo Marsili
p1
(lp2
VMatteomarsili
p3
aVyaaarMars
p4
aV8Marso
p5
aVmarsili_matteo
p6
aVMatteo1centro
p7
aVmattewsganaffa
p8
aVMarsiliMatteo
p9
asVDavide Bordenca
p10
(lp11
sVNikhil Goyal
p12
(lp13
Vnikhilgoya_l
p14
aVnikhilgoyal
p15
aVnikhilgoyal19
p16
aVnikhilgoyal002
p17
aVnikhilgoyal012
p18
aVnikhilgoyal98
p19
aVnikgoy
p20
aVnikhyal
p21
aVnikhilgoyal22
p22
aVnikhilgoyal4
p23
aVgoyalnikhil
p24
aVnikhilgoyalhere
p25
aVnikhilgoyal07
p26
aVnikhilgoyal10
p27
aVNikhilrgoyal
p28
aVNikhilGoyal1
p29
aVgoyalnikhil1
p30
aVnikhilgoyal91
p31
aVnikhil_goyal1
p32
aVNiks14feb
p33
asVRamis Movassagh
p34
(lp35
sVSilvia Santalla
p36
(lp37
VBartolaAycart
p38
asVValentina Giordano
p39
(lp40
VVal_Tommo
p41
aVvalentinagiord9
p42
aVValentinaGior
p43
aVValeG86
p44
aVvalentinagior18
p45
aVvaleeee86
p46
aVGiordanoVale
p47
aVVally85Giordano
p48
aVNina11Giordy
p49
aVValentinaVideo
p50
aVvalentinagior10
p51
aVValentinaciccia
p52
aVvalengiordano
p53
aVValentinaGiord6
p54
aVVali__Paz
p55
aVAlly83Giordano
p56
aV86Giordano
p57
aVValentinadwj
p58
aVvalentinagior16
p59
aVsugaryangel87
p60
asVNicola Mingotti
p61
(lp62
Vnico020978
p63
asVMiguel Plovins Pico
p64
(lp65
sVJoseph Gallagher
p66
(lp67
VJoeGalla
p68
aVJosephGallagher
p69
aVjgallagheruk
p70
aVjophuds
p71
aV_IamJoey_
p72
aVgallagherisgood
p73
aVUnspokenDream
p74
aVjosephgall
p75
aVJoegallagher29
p76
aVjoesue44
p77
aVjegocfc
p78
aVJoeasis
p79
aVThe_JRG
p80
aVGBroseph
p81
aVJosephG_92
p82
aVjosephgall87
p83
aVUjima_Village
p84
aVjgallagher92
p85
aVgallagherjp
p86
aVjgallagher1992
p87
asVMassimo Cavallaro
p88
(lp89
Vmassitalia9
p90
aVcavallaromax
p91
aVMassimotexano
p92
aVtempiogatti
p93
aVmassimo_60
p94
aVmassimo0113
p95
aVDottCibe
p96
aVmaxcavallaro
p97
aVcav81massimo
p98
aVmassimocavallar
p99
aVmassicavallari
p100
aVcavamassimo1
p101
asVConcetta Stancampiano
p102
(lp103
Vcettydolcecetty
p104
asVPatricia Rosso
p105
(lp106
VRossoPat
p107
aVpamake
p108
aVpatriciarosso
p109
aVpatiuru33
p110
aVPattyrossoRosso
p111
aVpato_rosso
p112
aVticeducando
p113
aVpatricia_rosso
p114
aVcrocodilepat
p115
aVRossoAnpa
p116
aVomadden20
p117
aVAragoPatty
p118
aVPeriquitas
p119
aVpatrirooo
p120
aVpaat_rosso
p121
aVshaderosco
p122
aVpatriciamrosso
p123
aVnavierocosmico
p124
aVtorbellinodeluz
p125
aVsamdailen
p126
asVElisabetta Curzel
p127
(lp128
Vvolpeargentata
p129
asVEfraim Feinstein
p130
(lp131
Vefraimdf
p132
asVMarisa Fatas
p133
(lp134
Vmarisafatas
p135
asVDaniel Olmedilla
p136
(lp137
Volme007
p138
asVJose Capitan
p139
(lp140
VCACASPARRA
p141
aVjosecapitan
p142
aVCACASPARRA_
p143
aVjosecapitan1
p144
aVercapi33
p145
aVk_capitan
p146
aVcapi2565
p147
aVMajocamar
p148
aVcapitan5000
p149
aVTrianaSanjuan
p150
aVRakionJose
p151
aVcusquen
p152
aVtricama
p153
aVcapi663
p154
asVDavid Sanz
p155
(lp156
Vdsanzag
p157
aVdsanzverjano
p158
aVDAVIDSANZSTUDIO
p159
aVdavidsanz73
p160
aVDavidSanzRFET
p161
aVDavidSanzArranz
p162
aVciuatanejo
p163
aVworldofsapo
p164
aVfotodual
p165
aVdavidsanz50
p166
aVdsanzezquerro
p167
aVdavidsanzv
p168
aVDavid_SN
p169
aVdavidsanz15
p170
aVDavidSanzDiaz
p171
aVdavidsanz25
p172
aVdavidsanz30699
p173
aVSanzDavid
p174
asVMonica Rogati
p175
(lp176
Vmrogati
p177
asVEnzo Nicosia
p178
(lp179
VKatolaZ
p180
asVMARY LUZ MOURONTE LOPEZ
p181
(lp182
sVDiane Wu
p183
(lp184
Vdna_nerd
p185
asVRonaldo Menezes
p186
(lp187
Vronaldomenezes
p188
aVPadreRonaldo
p189
aVRonaldo_Men
p190
aVronaldo_menezes
p191
aVMenezes_Ronaldo
p192
aVRONALDOFMDP
p193
aVRonaldoDiart
p194
aVronyssouza1
p195
aVRonaldomeneze15
p196
aVRoniMenezes
p197
aVronaldomenezes2
p198
aVronaldomenezes6
p199
aVronaldomenezes3
p200
aVseureyrmo
p201
aVronaldoacademia
p202
aVronaldo_sull
p203
aVRonaldoMenezesx
p204
asVTijana Delic
p205
(lp206
VTijanaDelic
p207
aVTijanaBonJovi
p208
asVJessica Kirkpatrick
p209
(lp210
Vberkeleyjess
p211
aVjesskirk
p212
aVjessicakirk94
p213
aVJessicawaslikee
p214
aVjessicalanee
p215
aVFentzess
p216
aVKirkpatrickJess
p217
aVjes_kirkpatrick
p218
aVjessie_love94
p219
aVspactacudor
p220
aVjlkbella
p221
aVJayKirk89
p222
aVsunne4jess
p223
aVJessicarassic
p224
aVYaGirlJessa
p225
aVJeeessssssica
p226
aVkirkymcneil
p227
aVJessaKirk
p228
aVsquirtykirk
p229
aVJessicaKirkpat4
p230
asVPhilippe Marchandise
p231
(lp232
VMARCHANDISEPH
p233
aVhelboy1964
p234
aVMARCHANDISEphil
p235
asVDanilo Jaccarino
p236
(lp237
sVErik Van der Straeten
p238
(lp239
sVVijay Erramilli
p240
(lp241
Velsubliminal
p242
asVMayank Lahiri
p243
(lp244
sVAastha Jain
p245
(lp246
Vaasthajain
p247
aVadd2ader
p248
aVAasthaIanS
p249
aVaasthagp
p250
aVaasthajaan
p251
aVaastha_1989
p252
aVaasthajain8
p253
aVaasthajain2656
p254
aVaastha101289
p255
aVAASTHAJAIN7
p256
aVaasthajain2
p257
aVaasthajain90
p258
aVaasthajain22
p259
aVaasthajain16
p260
aVaasthajain3
p261
aVaasthajain03
p262
aVjainaastha89
p263
aVaasthajain12
p264
aVaasthajain17
p265
aVaasthajain47
p266
asVYan Grunenberger
p267
(lp268
Vyangrunenberger
p269
asVRomina Rengel
p270
(lp271
Vrorengel
p272
asVMarco Favetta
p273
(lp274
VMarcoFavetta
p275
aVMarco_Favetta
p276
asVTaha Yasseri
p277
(lp278
VTahaYasseri
p279
asVSamina Taherbhoy
p280
(lp281
VSTaherbhoy
p282
asVRoberto Gutierrez
p283
(lp284
Vgutierrezr
p285
aVrobertg06
p286
aVrobertoastroboy
p287
aVAgenciaANNCOL
p288
aVRGutierrez22
p289
aVRob_Gutierrezmo
p290
aVjuditas666
p291
aVRobertoelsocial
p292
aVJROBERTO300
p293
aVRoberttalks
p294
aVrobjunior27
p295
aVmadboxx1
p296
aVdodyhaslam
p297
aVe_rrez
p298
aVsiganalrorro
p299
aVroberto20seg
p300
aVrogucas1
p301
aVelguti09
p302
aVrogutso
p303
aVrovguti
p304
asVEduardo Villatoro
p305
(lp306
VCritiqqEduardo
p307
asVPaola La Rocca
p308
(lp309
VPAOROCCA
p310
aVLrPaola
p311
aVla_paola762
p312
aVrocca_paola
p313
aVLaRoccaPaola
p314
aVpablalr
p315
aVPaolaLarocca
p316
asVIgnacio Serna Zaplana
p317
(lp318
sVManuel Garcia-Herranz
p319
(lp320
VRanzher
p321
asVAntonio Greco
p322
(lp323
Vantoniogreco61
p324
aVantonio_greco_
p325
aVantoniogreco9
p326
aVantoniogreco10
p327
aVantoniogreco98
p328
aVgreco_antonio
p329
aVantogrec
p330
aVtonyg59
p331
aVgreco120
p332
aVTonio_Greco
p333
aVAntonio__Greco
p334
aVMarcogreco18
p335
aVGr_Ant90
p336
aVAntonioGreco27
p337
aVAntonioGreco6
p338
aVmagisi1963
p339
aVadgreco9
p340
aVAgrec0
p341
asVDaidone Bruno
p342
(lp343
VKinder_Brueno
p344
asVMaria Rosaria Gimeli
p345
(lp346
Vmaesmf
p347
asVGabriele Guglielmino
p348
(lp349
sVGuillermo Suarez de Tangil
p350
(lp351
sVDaniele D'Angelo
p352
(lp353
VDaniele92_
p354
aVdngdnl
p355
aV_DangeloDaniele
p356
aVdangelouss
p357
aVsta_minchia89
p358
aVdangelodaniele
p359
aVDanieleDangeloM
p360
aVDaaDangello
p361
aVDANIELEGABSI
p362
aVSniperdany89
p363
aVdanielsonwind
p364
aVDany91Juve
p365
aVdangelo_daniele
p366
aVSITRE4
p367
aVdangeluzzo93
p368
aVluigi_89
p369
aVdAngelod89
p370
asVDAVID TORRES
p371
(lp372
Vdexterlivemusic
p373
aVdtorres252
p374
aVDavidCanalNou
p375
aVohhboydavid
p376
aVD_DELUISE
p377
aVtorresdavid40
p378
aVDavidtorres492
p379
aVDavitotg
p380
aVDavidTorrs
p381
aViamdavidtorres
p382
aVdavidtorresc
p383
aVdavidtorres
p384
aVdatoar
p385
aVDavidtorres86
p386
aVDavidtorres91
p387
aVDavidtorresCT
p388
aVDavid_torres19
p389
aVRobertDTorres
p390
aValucarddvd
p391
asVLinas Baltrunas
p392
(lp393
VLinasTw
p394
asVJoaquin Gonzalez
p395
(lp396
VJoaquin_UMOL73
p397
aVwoakin
p398
aVMORFEO60
p399
aVjuakolee
p400
aVGonzalezjoaco
p401
aVJokynGonzlez
p402
aVkinoo_kinoo
p403
aVjoaquing2013
p404
aVTRYGONEZ
p405
aVJoacoglez19
p406
aVguapo_16
p407
aVJuacoGonza
p408
aVrobertitofeo
p409
aVjoaquingzz96
p410
aVjgonzalezdeuria
p411
aVJoako73
p412
aVjoaqingonzalez
p413
aVJoaquin_G_Jr
p414
aVjgonzalezg_
p415
asVChristina Whittle
p416
(lp417
Vcwhittle
p418
asVMarta Gonzalez
p419
(lp420
Vmartagonzalezmg
p421
aVMartaG_novo
p422
aVmartagonzalez27
p423
aV__MartaGonzalez
p424
aVmartagonzalez
p425
aVMartita29190
p426
aVMartaPersonal
p427
aVmartagonzalezfe
p428
aVmartagonzalez_
p429
aV_MartaGonzalez
p430
aVmarta_gonzalez
p431
aVMartaGPereda
p432
aVDiazManina
p433
aVMartaGonzalez86
p434
aVMartatriatlon
p435
aVbrujiis
p436
aVmartonag
p437
asVJustin Parrella
p438
(lp439
VJustinParrella
p440
asVYamir Moreno
p441
(lp442
Vyamirmoreno1
p443
aVYamirDrums
p444
aVKervisM
p445
aVMorenoYamir
p446
aVcolombianoener
p447
asVAdrian Kuhn
p448
(lp449
Vakuhn
p450
asVAlain Barrat
p451
(lp452
Valainbarrat
p453
asVVincent Blondel
p454
(lp455
Vvincentblondel
p456
asVAlberto Robledo
p457
(lp458
Valbertorobledo
p459
aVAlberRobledo
p460
aVa_robledo
p461
aValbertorobledo7
p462
aVJROB01
p463
aVAlbertoRobledoo
p464
aValberto_vqs33
p465
aVluisalrobledo
p466
aVAlbertoRobledo8
p467
aValbertrobledo
p468
aVluisillomx
p469
aVrobledoalberto
p470
aVuntirodesuerte
p471
aValberto_robledo
p472
aVBethoRoblet
p473
aVAlbertorobledo2
p474
aVAlbertorobledo5
p475
aValbertorobledo4
p476
aValbertorobledo3
p477
aVarcdial
p478
asVRonald Martinez
p479
(lp480
VRonaldMartinez_
p481
aV_RonaldMartinez
p482
aVbancenco
p483
aVDepredador1717
p484
aVMartinez1Ronald
p485
aVThreeEyeVision
p486
aVRonaldrmo
p487
aVronaldmartinez
p488
aVrmartinezm75
p489
aVRonjesu1984
p490
aVronnor213
p491
aVnordin2k5
p492
aVronalandresm
p493
aVMartinezDance
p494
aVronaldm146
p495
aVBigCat_
p496
aVRonaldMVnz
p497
aVronaldlimon
p498
aVronaldmartinez9
p499
aVTMStreet333
p500
asVAdriana Freitas
p501
(lp502
Vadrianafreitas
p503
asVLeah McGuire
p504
(lp505
Vleahisgreat
p506
aVleahmcg11
p507
aVCPGleeGal
p508
aVLeah_Brookee
p509
aVLeah_McGuire
p510
aVMissLeeAhh
p511
aVLavender_bill
p512
aVleahmcguire15
p513
aVleahmcguire16
p514
aVleahmcguire
p515
aVBiebeerXoX
p516
aVlillyflowe23
p517
aVMcGuireLeah
p518
aVJustinBsfan101
p519
aVleah_mcguire13
p520
aVmcguire_leah14
p521
aVlehababes1
p522
aVTheLeahMcGuire
p523
aVLeah_striptease
p524
aVleahijt
p525
asVCheng Wang
p526
(lp527
Vchengwang
p528
aV_Neverlasting
p529
aVnyk4life
p530
aViamChengWang
p531
aVmacapapat
p532
aVCheng_Wang
p533
aVchengywang
p534
aVChgwang512
p535
aVChengWang5
p536
aVchengwang888
p537
aVchengwang10
p538
aVchengwang30
p539
aVchengwang6
p540
aVDeltaCheng
p541
aVYuChengWang
p542
aVwch2777173
p543
aVNDLMlovesGaga
p544
aVjyasaem
p545
aVpooh_tgz
p546
aVChengieee
p547
asVClaudio Castellano
p548
(lp549
Vclacaste
p550
aVClau_DoctorNo
p551
aVclaucastellano
p552
aVccskywalker
p553
aV1Jack46
p554
aVClaudioCastell3
p555
aVMarzuca1
p556
aVclaudiocosquin
p557
aVclaudio46650340
p558
aVClaudioCcstudio
p559
aVclaudiokrasic
p560
aVobservador1969
p561
aVclacas69
p562
aVKla_80
p563
aVcaiosoftware
p564
aVclaudiopanda93
p565
aVroccadikiria
p566
aVclaudiosbrand
p567
asVAmaru Villanueva Rance
p568
(lp569
Vamaruvr
p570
asVRita Giordano
p571
(lp572
Vrgiordano79
p573
asVDavid Camino Blasco
p574
(lp575
sVKate Cognard Dullea PsyD.
p576
(lp577
sVNadia Gambino
p578
(lp579
VBlackKimK
p580
aVNadia_Gambino
p581
asVIvan Cantador
p582
(lp583
Vicantador
p584
asVGianluca Santagati
p585
(lp586
sVAlejandro  Jaimes
p587
(lp588
Vsegnalapis
p589
asVPaolo Cardile
p590
(lp591
Vpaolocardile
p592
aVCardilePaolo
p593
aVpaolocz84
p594
asVCosimo Inserra
p595
(lp596
VCOSMO_83
p597
asVAdrien Friggeri
p598
(lp599
Vqelf
p600
asVDaniel Goddemeyer
p601
(lp602
Vdgodgo
p603
asVFilippo Radicchi
p604
(lp605
Vfilrad
p606
aVfilipporadicchi
p607
asVXiaoyuan Yang
p608
(lp609
Vxiaoyuanzizi
p610
aVTigerbite1997
p611
aVMs_Starry
p612
asVFlora Mercorillo
p613
(lp614
sVLuis Paris Carmona
p615
(lp616
Vlf_paris
p617
asVPrzemyslaw Grabowicz
p618
(lp619
Vprzemyslslaw
p620
asVAlbert Diaz-Guilera
p621
(lp622
Vanduviera
p623
asVJanos Kertesz
p624
(lp625
Vjanos_kertesz
p626
aVsulzbach01
p627
aVkerteszjanos1
p628
aVjanoskertsz
p629
asVJose Navarro
p630
(lp631
Vjnavarro86
p632
asVDomenico Giustiniano
p633
(lp634
sVAlejandro Llorente Pinto
p635
(lp636
Vllorentealex
p637
asVRocio Martinez Lopez
p638
(lp639
Vml_rocio
p640
asVAntonio Lima
p641
(lp642
Vthemiurgo
p643
asVAndrea Zen
p644
(lp645
VItsAndi_Babe
p646
aVandreazen83
p647
aVandreazen10
p648
aVandreazen2
p649
aVKazen1978
p650
aVAZen3
p651
aVandrea_zen
p652
aVAndreaZen5
p653
aVzendrum
p654
aVzendrum2000
p655
aVzinzun71
p656
aVandreadu69
p657
aVgigibreaker
p658
aVFUNKYMASTERWORK
p659
aVandreazen73
p660
asVCarlos Rascon Diaz
p661
(lp662
Vcrascondiaz
p663
asVWarren Mar
p664
(lp665
VMarWarren
p666
aVWarrenMar
p667
aVmar_warren
p668
asVGregorio Jimenez
p669
(lp670
VgoriJS
p671
aVgregorondon
p672
aVgregorio_portu
p673
aVGregs_JV
p674
aVgregoriojesus9
p675
aVgregji
p676
aVGregorioJimene6
p677
aVjoseteresa
p678
aVGregorioJimen
p679
aVgollo_jimenez
p680
aVgoyis
p681
aVgoyojimenez7
p682
aVprivado2407
p683
aVREVERTITO80
p684
aVgollojimenez
p685
aVgregoriojimenez
p686
aVGregoriojp77
p687
aVGregorio_JV
p688
aVtoby2811
p689
aVportu_gregorio
p690
asVBen Angel
p691
(lp692
VBarnetFCPics
p693
aVTalkativetree
p694
aVJamesIsAQueer09
p695
aVSaints4J
p696
aVBenBenangel
p697
aVben_angel_
p698
aVBenangelBen
p699
aVMadMuttons
p700
aVunderscoredark
p701
asVGiuseppe Greco
p702
(lp703
Vgiuseppegreco69
p704
aVpeppegreco23
p705
aVGIUSEPPEGRECO15
p706
aVgrecogiu
p707
aVhellnyc
p708
aVPinux12
p709
aVGRECOPHOTO
p710
aVGGreco85
p711
aVGiuseppegreco59
p712
aVGiuseppe863
p713
aVpucciogreco
p714
aVGiuseppeGreco88
p715
aVGiuseppeGreco
p716
aVGiu7Greco
p717
aVgiuseppemariag
p718
aVGrecoGiuseppe5
p719
aVforagne
p720
aVpruro
p721
aVgiuseppegrecos
p722
aVgiuseppegreco92
p723
asVSandro Meloni
p724
(lp725
VSandro_Meloni
p726
aVsandromeloni2
p727
aVsandromeloni
p728
aVSandMeloni
p729
aVmeloni_sandro
p730
aVsanmeloni
p731
aV2011Meloni
p732
aVSandroMelonii
p733
aVMeloniSandro
p734
aVSandroMeloni3
p735
aVsandromeloni11
p736
asVNicola Fusco
p737
(lp738
Vnik_fusco
p739
asVJukka-Pekka Onnela
p740
(lp741
Vjponnela
p742
asVAntonio Massimiliano Mio
p743
(lp744
sVAlejandro Bellogin
p745
(lp746
Vabellogin
p747
asVStefano Stanzione
p748
(lp749
VStanzioneS
p750
aVStefanoStanzion
p751
aVStefanoStanzio1
p752
aVstanzio1965
p753
aVstefano0109
p754
asVJelena Grujic
p755
(lp756
Vjelenagrr
p757
asVGianpiero Caruso
p758
(lp759
Vjumpy769
p760
asVGiuseppe Gulisano
p761
(lp762
VGiusepGulisano
p763
aV1Giuseppe1
p764
aVgiuseppegulisa1
p765
aV16Giuseppe
p766
aVguli1992
p767
aVPeppep993
p768
aVgiuseppegulisan
p769
aVgiuseppeguli42
p770
aVbeppemegane
p771
aVGh3100nkPeppe
p772
asVMatteo Nicoli
p773
(lp774
VCirlen
p775
aVMatteoNicoli
p776
aVmatteonicoli1
p777
aVnicoli_matteo
p778
aVlettio92
p779
aVvivalapatata78
p780
aVNicolic01
p781
aVNicoli92Matteo
p782
aVMatteoLaForza08
p783
aVvertigothispain
p784
aVILBRILLO
p785
aVMatteoLaForza
p786
aVmatnic27
p787
aVNicoliMatteo
p788
aVMatteo08000
p789
asVRoberto Lo Savio
p790
(lp791
Vlewdness84
p792
aVRlsRoberto
p793
asVJake Klamka
p794
(lp795
Vjakeklamka
p796
asVDina Papagiannaki
p797
(lp798
Vdpapagia
p799
asVFlavio Testai
p800
(lp801
VFTestai
p802
asVLaszlo Gyarmati
p803
(lp804
Vlgyarmati
p805
aVLaszloGyarmati
p806
aVgylaccos
p807
aVlgyar
p808
aVgyarmatilaszlo
p809
aVlacika5997
p810
aVgyarmala
p811
aVgyarlaci
p812
aVkopaszkopasz
p813
aVGyarmatiL
p814
aVlacka114
p815
aVlacika0711
p816
asVLuca Marotta
p817
(lp818
VLucaMarotta2
p819
aVlucamarotta
p820
aVLukeMarotta
p821
aVawesome_luca
p822
aVLucaMarotta3
p823
aVluckymarotta
p824
aVGMawesome10
p825
aVcrazy_liuk
p826
aVliuc96
p827
aVLUCA__MAROTTA
p828
aVlupo1808
p829
aVLucaMarotta1
p830
aVMarottaLuca
p831
aVsicily12341
p832
aVroccolucam
p833
aVlucamarottachef
p834
aVluca_marotta
p835
asVMauro Cherubini
p836
(lp837
Vmartigan
p838
aVMAUROCHERUBINI1
p839
aVNexpill
p840
aVARTWARNETBOOK
p841
aVmaurocherubini
p842
asVPetter Holme
p843
(lp844
Vpholme
p845
asVFabio Virzi
p846
(lp847
Vfabiovirzi
p848
asVRodrigo de Oliveira
p849
(lp850
Vrodrigobamboo
p851
aVdenilsonshow
p852
aVdigoh15
p853
aVrod_ol
p854
aVprdrigo
p855
aVdeoliveira30
p856
aVRodrigoMcFly
p857
aVrodyz1
p858
aVpartiupartindo
p859
aVdiggorj
p860
aVguigo_rrpp
p861
aVRodrigofono
p862
aVRo_oliv2
p863
aVROCOSTA77
p864
aVDiigohOliveira
p865
aVrodrigo_oliveir
p866
aVRodri_Oliveira_
p867
aVoliveiira
p868
aVderodrigo
p869
aVdigooliveira__
p870
asVFilippo Simini
p871
(lp872
ViPif
p873
asVPeter Fishman
p874
(lp875
Vpsfishman
p876
aVPeteFish22
p877
aVPLFish
p878
aVPeterEFishman
p879
aVfishin4mn
p880
aVThe_Fishman
p881
aVCHEETAH6609
p882
aVProxiVivo
p883
aVmytasccolor
p884
aVUpperWes
p885
aVHobokenNJ07030
p886
aVfishman550
p887
aVfishman1818
p888
asVClaudia MM Sinatra
p889
(lp890
sVMichele Tizzoni
p891
(lp892
VMTizzoni
p893
asVLucian Vlad Lita
p894
(lp895
Vdatariver
p896
asVJordi Luque
p897
(lp898
Vjluquesanz
p899
aVJordiLuque16
p900
aVjordidancerluke
p901
aVluquejordi
p902
aVjorluque
p903
aVjorgitos96
p904
aVJordiLuque8
p905
aVjjfhoto
p906
aVJORDI_JLA
p907
aVjorgo689
p908
aVjpalacin65
p909
aV7_90fx
p910
aVRomeralJordi
p911
aVJordiRomeral
p912
aVJgarcialu
p913
aVJordiivet
p914
aVJordiJimenezLuq
p915
asVEnrique Urrea
p916
(lp917
VEnriqueurrea97
p918
aVenriqueurreaver
p919
aVenriqueurrea23
p920
aVensayohuf1234
p921
aVfabioenriqueurr
p922
aVA87Urrea
p923
aVcarlosenriqueur
p924
aVnelsonenriqueur
p925
aV93us_chuy
p926
aVurrea_enrique
p927
aVfire777666
p928
aVenriquejurrea
p929
aVbestglobalmark
p930
aVwwwnestor1994
p931
aVloko_urrea
p932
aVSarayUrrea
p933
aVnestor_urrea
p934
aVfusagasuo
p935
aVUrreaEnrique
p936
asVArturo Canales
p937
(lp938
Vkallaghaan
p939
asVAngela Lahee
p940
(lp941
Vinstantonia
p942
aVmamavirgo
p943
asVRuben Lara
p944
(lp945
VRLaraH
p946
asVEvans Wadongo
p947
(lp948
Vevanswadongo
p949
asVRoman Chuhay
p950
(lp951
sVMarcin Olek
p952
(lp953
VMarcinOlek
p954
aVMarcin_Olek
p955
aVOlekMarcin
p956
aVmaraolo1
p957
asVKonstantinos Trantopoulos
p958
(lp959
sVLaura Muzzetta
p960
(lp961
VLozzington
p962
asVLuis Villarrubia Grande
p963
(lp964
sVEnrica Trovato
p965
(lp966
Venrifrinfri
p967
asVDaniele Vilone
p968
(lp969
VDanieleVilone
p970
asVCarlos Roca
p971
(lp972
Vcarlosroca08
p973
aVRADIOACTIVABOL
p974
aVcarlosroca1970
p975
aVcarlosrocadutra
p976
aVcarlosroca2
p977
aVcarlosroca54
p978
aVcarlosroca100
p979
aVcarlosroca4
p980
aVjcarlosroca
p981
aVcroca10
p982
aVcaroca74
p983
aVBlueChipStone
p984
aVcarlosdhg
p985
aVsamariocr
p986
aVcgroca
p987
aVtheonlycr7
p988
aVCarlosRCN1
p989
aVrouc10
p990
aVCarlitosBrown10
p991
aVGiancarloRocc
p992
asVHeath Hohwald
p993
(lp994
Vheathtaeh
p995
asVGeoff Pritchard
p996
(lp997
VGeoffPritchard
p998
aVgeoffpritchard2
p999
aVGeoffRPritchard
p1000
aVPritchardGeoff
p1001
aVgeoff_pritchard
p1002
aVJoffa6
p1003
aVGeoffPritchard3
p1004
aVGoldenOrbDesign
p1005
aVGeoffPritchard1
p1006
aVpritchard_geoff
p1007
aVJoffa43
p1008
asVYiqiao Tang
p1009
(lp1010
Vyqtang
p1011
asVFrancesco Calabrese
p1012
(lp1013
Vheadonistic
p1014
aVCalabrese23
p1015
aVcala_fnc
p1016
aVpreludetobs
p1017
aVskateforfranny
p1018
aVfracalabrese
p1019
aVLudwigFC
p1020
aVciccionik
p1021
aVFrankie7003
p1022
aVCalabreseFra
p1023
aVfracalabrese03
p1024
aVcalabrese2010
p1025
aVFrancoiky
p1026
aVfranzpizzo
p1027
aVFrancescoCala8
p1028
aVolgtop
p1029
aVfrancescocala10
p1030
aVfrancis7512
p1031
aVsaion9
p1032
aVfranco_art11
p1033
asVKeoki Seu
p1034
(lp1035
VKeokiSeu
p1036
asVAndrea Rapisarda
p1037
(lp1038
VA_Rapis
p1039
asVSaul Ares
p1040
(lp1041
Vomeuxeito
p1042
asVAnna-Lena Fraund
p1043
(lp1044
sVBarbara Hidalgo
p1045
(lp1046
VNatalyHidaalgo
p1047
aVBarbyUCV
p1048
aVbarbarahidalgo3
p1049
aVbarbaravillage
p1050
aVBeeSaysSo
p1051
aVbarbarahidalgog
p1052
aV1Dbarbaraa
p1053
aVbarbiband
p1054
aVbebafreak
p1055
aVBRHidalgo
p1056
aVBarbarahidalgo0
p1057
aVbarbarahidalgo2
p1058
aVmbarbarah
p1059
aVbarbarahidalgo5
p1060
aVbarbarahidalgo6
p1061
aVbarbarahidalgo9
p1062
aVbabihidalgo
p1063
aVcloyyoshi
p1064
aVLa_Baarb
p1065
asVMarites Leticia Corro Espinosa
p1066
(lp1067
sVEnrica Arcadipane
p1068
(lp1069
VEnricaArca
p1070
asVGustavo Garza Gaona
p1071
(lp1072
Vgg_tavo
p1073
asVDavid Rodrigues
p1074
(lp1075
Vsixhat
p1076
asVCristina Soguero Ruiz
p1077
(lp1078
sVStefano Messina
p1079
(lp1080
Vstefano1315
p1081
aVranamessinese
p1082
aVstefanomessina5
p1083
aVmessinastefano
p1084
aVSte_Messina
p1085
aVstefmess81
p1086
aVStefanoWildcat
p1087
aVStefano58Messin
p1088
aVstefano7410
p1089
aVStefanoMes
p1090
aVSte_mengoni
p1091
aVStefanoMessina2
p1092
aVStemes96
p1093
aVjokerit69
p1094
aVstefano_messina
p1095
aVbyron1952
p1096
aVSbarbM
p1097
aVStefanoMessina3
p1098
aVStevan_11
p1099
aVStefanoMessina1
p1100
asVFroilan Dopico
p1101
(lp1102
sVMa Luz Congosto
p1103
(lp1104
Vcongosto
p1105
asVXavier Amatriain
p1106
(lp1107
Vxamat
p1108
asVFrancesco Bonchi
p1109
(lp1110
VFrancescoBonchi
p1111
asVSalvatore Scellato
p1112
(lp1113
Vthetarro
p1114
asVDaniele Quercia
p1115
(lp1116
Vdanielequercia
p1117
asVAngel Sanchez
p1118
(lp1119
VAngelSanchezOk
p1120
aVAngelSanchezPR
p1121
aVAngelSanchezB
p1122
aVangelsanchezdj
p1123
aVangelsanchez00
p1124
aVangelsanchez081
p1125
aVangelsanchez87
p1126
aVangelsanchez15
p1127
aVangeljsanchez
p1128
aVAngelillo_84
p1129
aVangelsanchez33
p1130
aVsanchezangelm
p1131
aVVitaminC_Angel
p1132
aV_AngelSanchez_
p1133
aVBassHeadMiguel
p1134
aVAngelSanchez___
p1135
aVsanrau
p1136
aVangelsanchez_95
p1137
aVJASANCHEZT
p1138
asVDavid Millan
p1139
(lp1140
Vdmillan82
p1141
asVSimon de la Rouviere
p1142
(lp1143
Vsimondlr
p1144
asVAlessio Cardillo
p1145
(lp1146
VCardilloA7
p1147
aVAlessioCardillo
p1148
aValc253
p1149
aVAle_99FC
p1150
asVJosep Larriba-Pey
p1151
(lp1152
Vlarri64
p1153
asVVicente Salas
p1154
(lp1155
Vvicentesalas80
p1156
aVvsalas112
p1157
aVDoktormty
p1158
aVBertaVicenteS
p1159
aVSVicenteSalas
p1160
aVVichosalast
p1161
aVvicente7
p1162
aVvicente13112
p1163
aVIrevicensa
p1164
aVAlvarovicentee
p1165
aVvixosalas
p1166
aVsalas_vicente
p1167
aVvicentesalas_80
p1168
aVvsalas70
p1169
aVvicente_squiroz
p1170
aVvsalas62
p1171
aVjvsalasl
p1172
aVvilyenzo2180
p1173
aVvicentesalas21
p1174
aVVICENTESALAS4
p1175
asVAntonio Fontanini
p1176
(lp1177
Vafontanini
p1178
asVRobin Dunbar
p1179
(lp1180
Vrobin5675
p1181
aVRobinDunbar1
p1182
aVsohmakyx
p1183
aVRobinBalck
p1184
aVRobinDunbar
p1185
aVBayBabiesorg
p1186
aVrobin_dunbar
p1187
aVdunbarrobin
p1188
aVbrownmumm
p1189
aVrdunbar2
p1190
aVdunbar_robin
p1191
aVRobinDunbar3
p1192
aVRobinDunbar2
p1193
aVjazzyrooster
p1194
aV4239875103
p1195
aVrdunbar96
p1196
aVHislittlegodess
p1197
asVSanto Fortunato
p1198
(lp1199
Vsanto_fortunato
p1200
asVOrazio Aiello
p1201
(lp1202
VAOrazioa
p1203
aVOrazioVip
p1204
asVPeppe Sirchia
p1205
(lp1206
Vpeppesirchia
p1207
asVJuan Manuel Molera Molera
p1208
(lp1209
Vjmmolera
p1210
aVmekanik_o
p1211
asVMorena Pappalardo
p1212
(lp1213
Vsimdosdois
p1214
asVRaffaele Poli
p1215
(lp1216
VRaffaelePoli12
p1217
aVPoliRaffaele
p1218
aVRaff1977
p1219
aVraffaelepoli
p1220
asVEmma Binderup
p1221
(lp1222
Vebinderup
p1223
asVAlberto Flores Garcia
p1224
(lp1225
Valbertogarciaf5
p1226
aVAlbertoGarciaF1
p1227
asVLuca Finocchiaro
p1228
(lp1229
Vlucafinokkiaro
p1230
aVoimmei
p1231
aVnobodyasme
p1232
aVLucaFinocchiaro
p1233
aVluca_fino
p1234
aVL_finocchiaro
p1235
aVLucaFino
p1236
aVmiguelonluca
p1237
aVFluka72
p1238
aVconfessions85
p1239
aVFino_95
p1240
aVlucaystephanie
p1241
aVLucaFinocchiar1
p1242
aVlucaf79
p1243
asVFrancesco Pellegrino
p1244
(lp1245
Vfmdpellegrino
p1246
aVCescOpellegrinO
p1247
aV19Frp
p1248
aVFraPellegrinoPH
p1249
aVFrancepelle
p1250
aVfgpellegrino
p1251
aVpellegrino_fra
p1252
aVRonWeasley94
p1253
aVcicciopelle1997
p1254
aVFrancescoPirata
p1255
aVcicciopell
p1256
aVFranzPellegrino
p1257
aVfra_pelleg
p1258
aVFp1964
p1259
aVekstraordiner
p1260
aVKuman10
p1261
aVfrancesco_pelle
p1262
aVfra_pelle
p1263
aVpiopell
p1264
aVpellegrinofraA2
p1265
asVNiccolo' Stamboglis
p1266
(lp1267
sVEnric Herrero
p1268
(lp1269
Venricherrero
p1270
aVrexmanneu
p1271
asVSusana Ferreras
p1272
(lp1273
Vsusanaferreras
p1274
asVSimone Riggi
p1275
(lp1276
V95_simmi
p1277
aVriggi_simone
p1278
aVsimo_riggi
p1279
aVriggi0133
p1280
aVsimone_riggi
p1281
aVSimoiggir92
p1282
aVSimoneRiggi2
p1283
aVsimoneriggi1
p1284
aVRiggiSimone
p1285
aVSimoneRiggi
p1286
asVJavier Hernandez
p1287
(lp1288
Vjaviereh
p1289
aVHernandezJavier
p1290
aVEIChicharito
p1291
aVjaviHdz_
p1292
aVJaviHernandzWEB
p1293
aVJavierHernandez
p1294
aVInviertaPGanar
p1295
aVManU_Chicharito
p1296
aVChicharitoMVP
p1297
aVChicharitoID
p1298
aVJaviernandez
p1299
aVCF_JaviHdz
p1300
aVSoysuchicharito
p1301
aVjavier_hdez
p1302
aVjavihernandez76
p1303
aVjavihernande
p1304
aVF_JaviHernandez
p1305
aVjavielitoher
p1306
aVjavierhbonnet
p1307
asVAndre Karpitenko
p1308
(lp1309
sVGiovanni Petri
p1310
(lp1311
Vlordgrilo
p1312
asVLuigi Di Caro
p1313
(lp1314
VLuigiDiCaro
p1315
aVlux1964
p1316
aVCaroLuigi
p1317
asVNiko Gamulin
p1318
(lp1319
VNikoGamulin
p1320
asVRichard Benjamins
p1321
(lp1322
Vvrbenjamins
p1323
asVHaewoon Kwak
p1324
(lp1325
sVAntonio Fernandez Anta
p1326
(lp1327
Vafernandez70
p1328
asVLuca Naso
p1329
(lp1330
VNasoLuca
p1331
aVn1affil
p1332
aVlucanaso82
p1333
aVNasus92
p1334
aVNuas_92
p1335
aVNuas92
p1336
aVLucanaso
p1337
asVGiuseppe Angilella
p1338
(lp1339
Vggna_moony
p1340
asVGuido Caldarelli
p1341
(lp1342
VGuidoCaldarelli
p1343
asVKevin Teh
p1344
(lp1345
Vteddylife
p1346
aVkevinhw
p1347
aVkevinck80
p1348
aVKevinwoo91
p1349
aVkecsvin
p1350
aVFollowKevinTeh
p1351
aVKevinTehKahWay
p1352
aVgtr352611
p1353
aVDailyPerfume
p1354
aVKevinTeh1
p1355
aVKevinTeh118
p1356
aVteh_kevin
p1357
aVkevintehkb
p1358
aVKevlarT
p1359
aVPanadolian
p1360
asVMarco Gramaglia
p1361
(lp1362
V_emmegi
p1363
asVAndrew Manion
p1364
(lp1365
VConsolAndrew
p1366
asVVanessa Frias-Martinez
p1367
(lp1368
sVLuis Moyano
p1369
(lp1370
Vluismoya2011
p1371
aVNicksNames
p1372
aVluismoyano_esp
p1373
aVGERMANMOYANOG
p1374
aVluis_moyano
p1375
aVMoyanoRealty
p1376
aVluismoyano3
p1377
aVjolumoyano
p1378
aVbravado10
p1379
aVluismoyano95
p1380
aVjoselitomoyano
p1381
aVlmoyano007
p1382
aVluislabaguette
p1383
aVHOSHIRO2003
p1384
aVLuisMoyFMO
p1385
aVlmoyanog
p1386
aVCharruaLm
p1387
aVlistentomoyas
p1388
aVluismoyano77
p1389
asVJuan Antonio Candiani
p1390
(lp1391
sVAlexandros Karatzoglou
p1392
(lp1393
Vbookone11
p1394
asVEsteban Moro
p1395
(lp1396
Vestebanmoro
p1397
asVTheus Hossmann
p1398
(lp1399
Vthossmann
p1400
asVAntonino Foti
p1401
(lp1402
VMr_15balls
p1403
aVantoninofoti99
p1404
aVSuperzuzzo
p1405
aVagatadonia55
p1406
aVantonino_foti
p1407
aVfotiarch
p1408
aVcarloantoninofo
p1409
aVAntoninoFoti3
p1410
aVFotiAntonino
p1411
aVntunieddu
p1412
aVerbufalo90
p1413
aVnino_foti
p1414
aV_AF_FastLife
p1415
aVfotinino2
p1416
aVAntoninoFoti2
p1417
aVadfgraphics
p1418
aVfoti_antonino
p1419
aVninofoti55
p1420
aVtoninofoti9
p1421
asVDario Patane
p1422
(lp1423
sVNan Ma
p1424
(lp1425
Vminmamams
p1426
aVnanma814
p1427
aVnanma0320
p1428
aVstacey_ma
p1429
aVmanan0613
p1430
aVTypeIIerror2008
p1431
aVjacket_nan
p1432
aVMichelNanMa
p1433
aVYanxi_M
p1434
asVDavid Sainz
p1435
(lp1436
Vdavidsainz
p1437
aVD_DELUISE
p1438
aVdavidsainz46
p1439
aVGemurvision
p1440
aVdavidsagd
p1441
aVDavidSainzDj
p1442
aVdavsaall
p1443
aVdeividsainz
p1444
aVSainzLa
p1445
aVDavidSainz11
p1446
aVDABITD10S
p1447
aVdavidsainz20
p1448
aV97davidsainz
p1449
aVdavidsainz9
p1450
aVDAVIDSAINZ54
p1451
aVdavidsainz2
p1452
aVnavarradavs
p1453
aVdavidsainzz
p1454
asVJames King
p1455
(lp1456
Vjking_ca
p1457
asVCharles Wilyman
p1458
(lp1459
VCharles_NJF
p1460
asVSalvatore Turrise
p1461
(lp1462
sVFernando Diez
p1463
(lp1464
VDiezFer
p1465
aVfdiez
p1466
aVfdiezmolina
p1467
aVferdidiez10
p1468
aVFerDiezVarela
p1469
aVFernando_Bronx
p1470
aVFerDiezRuiz
p1471
aVjosefdc1
p1472
aVf10f
p1473
aVya_boy_fed
p1474
aV10towers
p1475
aVferndc
p1476
aVlbsdragons
p1477
aVfernandodiez7
p1478
aVfdiezgutierrez
p1479
aVfer_diezperez
p1480
aVjfdiez10
p1481
aVlucadi01
p1482
aVtodover
p1483
asVRay Leihe
p1484
(lp1485
Vrleihe
p1486
asVRoger Guimera
p1487
(lp1488
VAutoandTrack
p1489
aVRogerSnGuimera
p1490
aVpoprx1984
p1491
asVSandro Talluto
p1492
(lp1493
Vsiculo_spagnolo
p1494
asVGabriel Martos
p1495
(lp1496
Vdeadoralive1723
p1497
aVtabacosjg
p1498
aVgabrielmartos4
p1499
aVgabrielmartos3
p1500
aVgabrielmartos2
p1501
aVg_martos_cobo
p1502
aVTOROMURCIA32
p1503
aVgabrielmanager
p1504
aV1_martos
p1505
aVaksiete
p1506
aVMartos5111
p1507
aVgaboxD123
p1508
aVJUANGAML
p1509
aVMartosGabriel
p1510
aVInfoMartos
p1511
aVgabriel_martos
p1512
aVpeeeerro
p1513
aVmartos_ariza
p1514
aVgabymartos
p1515
aVgaboxmezzias
p1516
asVLuis Uribe
p1517
(lp1518
Vluisuribe
p1519
aVluis_uribes
p1520
aVluisuribe83
p1521
aVluribea68
p1522
aVLuisuribeH
p1523
aVLuisGangOrDie
p1524
aVjoseluis8aa
p1525
aVlurbe88
p1526
aVluis_uribe23
p1527
aVcuiro
p1528
aVscorsesiano
p1529
aValberto_uribe
p1530
aVim_that_boy_92
p1531
aVluis_alcantar3
p1532
aVJOSEuribex
p1533
aVURIBE_CARO
p1534
aVLuis__Uribe
p1535
aVluisuribe13
p1536
asVFrancisco Jose Tavira Sanchez
p1537
(lp1538
VFranTavira
p1539
asVLuis Dinis
p1540
(lp1541
Vaikopt
p1542
aVLuisDinis
p1543
aVGrover6625
p1544
aVluisdinis7
p1545
aVluisdinis74
p1546
aVluisdinis3
p1547
aVluisdinis5
p1548
aVGaviao_pt
p1549
aVLuisDinis_
p1550
aVlmadinis
p1551
aVdinis_it
p1552
aVDinisVizcaino
p1553
aVLuisMimas
p1554
aVLuisDinis2
p1555
aVDinisl
p1556
aVdinis_luis
p1557
aVLuisDinis6
p1558
aVLuisDinis1
p1559
aVlmdinis
p1560
aVluis_dinis
p1561
asVNicola Perra
p1562
(lp1563
VNicolaPerra
p1564
aVnicolaperra1
p1565
aVaaanicola90
p1566
aVnickdoppiopasso
p1567
aVperranicola
p1568
aVNegooss
p1569
aVNicoPerra
p1570
asVGiuseppe Davide Paparo
p1571
(lp1572
sVZoe Bogart
p1573
(lp1574
Vzoedanza
p1575
asVAndrea Sciuto
p1576
(lp1577
Vtosciu
p1578
asVMarina Delgado
p1579
(lp1580
Vmarinadn7
p1581
aVMarinadelgado4
p1582
aVmarina_delgado9
p1583
aVmarinadelgado
p1584
aV4perras
p1585
aVMaru_Delgado_
p1586
aVMariniilla
p1587
aVMARINADELGADO7
p1588
aVMarinaDelgado95
p1589
aVmaarinadel
p1590
aVmdelgado10
p1591
aVMarinaDelgad
p1592
aVmcdelgadoc
p1593
aVMarinadelgaroca
p1594
aVmarinadlgado
p1595
aVMarina_LiWang
p1596
aVMaguiSdf
p1597
aVMarinaDLazaro
p1598
aVpaferluz
p1599
aVMarina_DelgadoB
p1600
asVMarta Tolos
p1601
(lp1602
VLady_ofShalott_
p1603
aVmartatolos
p1604
asVBig Data Spain
p1605
(lp1606
VBigDataSpain
p1607
asVMario Konschake
p1608
(lp1609
VInfinite_Monkey
p1610
asVDavid Lopes Pegna
p1611
(lp1612
sVJose Ramasco
p1613
(lp1614
Vschrodinger9
p1615
aVCACASPARRA
p1616
aVCACASPARRA_
p1617
asVRafael Vida Delgado
p1618
(lp1619
Vfalevian
p1620
asVMa Purificacion Ruiz Cid
p1621
(lp1622
sVEmily Cornwall
p1623
(lp1624
Vcornwallemi
p1625
aVgottaluvEmC
p1626
aVWeLuvEmC
p1627
aVEmilysbeauty
p1628
aVEmilylovesRpatz
p1629
aVcornwall_4898
p1630
aVEmmie1982
p1631
aVemily_cornwall
p1632
aVemrodman
p1633
aVemilycornwall
p1634
asVMikko Kivela
p1635
(lp1636
Vbolozna
p1637
asVMarco Berritta
p1638
(lp1639
VMBerritta
p1640
aVMarcoBerritta
p1641
asVColin Dillard
p1642
(lp1643
Vcolindillard
p1644
aVkidchunki
p1645
aVColinColinhh
p1646
aVDillardLINA857
p1647
asVAndre Panisson
p1648
(lp1649
Vapanisson
p1650
asVLorenzo Di Silvestro
p1651
(lp1652
sVDavid Diaz Vico
p1653
(lp1654
VDavidDiazVico
p1655
asVPere Obrador
p1656
(lp1657
Vpereo
p1658
aVPere_Obrador
p1659
aVPereObrador
p1660
asVFerenc Huszar
p1661
(lp1662
Vfhuszar
p1663
asVMichael Sirivianos
p1664
(lp1665
Vmsirivia
p1666
aVbisping
p1667
asVNoemi Cuocina
p1668
(lp1669
VNASeason
p1670
asVAranzazu Castillo Pachon
p1671
(lp1672
sVCristina Brandle
p1673
(lp1674
Vcbrandle
p1675
asVFrancesca Giacoppo
p1676
(lp1677
sVVictor Soto
p1678
(lp1679
Vvicsoto
p1680
aVVictorSoto_
p1681
aVVictorSotoplay
p1682
aVvictorisoto
p1683
aVvictorsoto10
p1684
aVvictorsoto91
p1685
aVvicener
p1686
aVVictorSotoT
p1687
aVvfsotov
p1688
aVSalesPartnersLT
p1689
aVivicsonic
p1690
aVvictorwyo
p1691
aVVsAlfonso
p1692
aVbluepoly
p1693
aVVictorsoto_7
p1694
aVvictorsoto20
p1695
aVVico2
p1696
aVvictorsotoIII
p1697
aVVSotoP
p1698
aVSalesPartnersMX
p1699
asVEmanuele Francesco Pecora
p1700
(lp1701
sVVincent Fusaro
p1702
(lp1703
VVincentFusaro
p1704
aVvfusaro
p1705
aVVirpman
p1706
asVRodolfo Cuerno
p1707
(lp1708
sVSvetozar Nesic
p1709
(lp1710
Vzdravoumartini
p1711
asVGiovanni Di Raffaele
p1712
(lp1713
VGiovanniDiRaffa
p1714
aVRaffaeleDiGiov3
p1715
aVDiGiovanni_R
p1716
aVraffaeledigiov1
p1717
aVRaffaeleDiGiov2
p1718
aVraffa150863
p1719
aVplaydelcarmen1
p1720
aVRaffaeleDiGiova
p1721
aVRafDG7
p1722
asVMari Luz Garcia
p1723
(lp1724
VluzsanpacoM
p1725
aVmalugasa
p1726
aVMariluzGarciaR
p1727
aVMary6548
p1728
aVMCule7
p1729
aVmarixinxon
p1730
aVMLuz_gp
p1731
aVmaryxinxon
p1732
aVmariluzgarciaar
p1733
aVMariLuzCule00
p1734
aVsoydeverdicio61
p1735
aVMALIBULUZ
p1736
aVmariluz344
p1737
aVmaygarcita98
p1738
aVnegrongarcia
p1739
aVMariLuzGarcia4
p1740
aVjskdfhu
p1741
aVLuzG48
p1742
aVG48Luz
p1743
aVpetaloss22
p1744
asVFrancesco Patane'
p1745
(lp1746
Vjazzbearct
p1747
asVAmmad Shaikh
p1748
(lp1749
Vay_shake
p1750
aVammadshaikh1
p1751
aVAmmadShaikh2
p1752
aVAmmadShaikh
p1753
aVShakeBrah
p1754
aVAmmad_13
p1755
aVmaadu91
p1756
aVShake_It_Bitch
p1757
aVshaikh_ammad
p1758
aVamad_shaikh
p1759
asVAnabela Ferreira
p1760
(lp1761
VB3la
p1762
aVtaogiro
p1763
aVAnabelaAPF
p1764
aVanabelaf1995
p1765
aVBalancingBiz
p1766
aVAnabelarajado
p1767
aVanabelawill
p1768
aVanabela_bila
p1769
aVbaleiazul
p1770
aVAnabelaFerreira
p1771
aVAnabelaferreir1
p1772
aVacasferreira
p1773
aVamf231084
p1774
aVbecascarneiro
p1775
aVANAREDX
p1776
aVNailsCare
p1777
aVanabela_cle
p1778
aVanaferreira_30
p1779
aVAnabelaFerrei20
p1780
aVanabela98609019
p1781
asVKaren Church
p1782
(lp1783
Vkarenchurch
p1784
asVPrakhar Mehrotra
p1785
(lp1786
Vprakharmehrotra
p1787
aV1ndustrialDsgn
p1788
aVprakhar1884
p1789
aVPrakhar__
p1790
aVgamerprakhar
p1791
aVprakharmehrotr2
p1792
aVashumehrotra1_
p1793
aVHunk009Prakhar
p1794
aV9760966115
p1795
aVpraaaaaakhar
p1796
aVPrakharmehrotr1
p1797
aVPrakhar56
p1798
aVNEEMIN
p1799
asVJavier Rodriguez Laguna
p1800
(lp1801
Vminuano12
p1802
asVSinan Aral
p1803
(lp1804
Vsinanaral
p1805
asVMassimiliano Chiorboli
p1806
(lp1807
sVDomenico Gimeli
p1808
(lp1809
VDGimeli
p1810
asVFrancisco Jariego
p1811
(lp1812
VProctologo
p1813
asVNuria Oliver
p1814
(lp1815
Vnuriaoliver
p1816
aVNuriaOliverNava
p1817
aVNuriaOliv
p1818
aVnuria_design
p1819
aVhentairules
p1820
aVNurietus
p1821
aVnuriaoliverserr
p1822
aVAIRUNREVILO
p1823
aVNuriaOliver1
p1824
aVOliverNuria
p1825
aVOliverjimenez17
p1826
aVNriaOliver
p1827
asVVictor Llorente
p1828
(lp1829
VvistolKRH
p1830
aVvictorllorente6
p1831
aVV_Llorente
p1832
aVvictorllorente2
p1833
aVVictorGL89
p1834
aVvictorllorente3
p1835
aVllorente512
p1836
aVVector_16
p1837
aVdepixulo
p1838
aVCalataVictor
p1839
aVm0t0r469
p1840
aVLlorente1994
p1841
aVllorentinyo
p1842
aVVictorLLorente1
p1843
aVLlorente03
p1844
aVvictorllovel27
p1845
aVvaitor01
p1846
aVVictorMLA
p1847
asVCesare Garofalo
p1848
(lp1849
VGarofalocesare
p1850
aVcesareelia
p1851
aVcesaregarofalo
p1852
asVCiro Cattuto
p1853
(lp1854
Vciro
p1855
asVTobias Galla
p1856
(lp1857
Vtobiasgalla
p1858
asVJavier Galeano
p1859
(lp1860
Vgaleanojav
p1861
asVAnke Marije Pompstra
p1862
(lp1863
VAnkeMarije
p1864
asVMat Travizano
p1865
(lp1866
Vmtravizano
p1867
asVPedro Alonso Baigorri
p1868
(lp1869
sVManuel Gomez Rodriguez
p1870
(lp1871
VGomez1Manuel
p1872
aVManuelgomrodri
p1873
asVJussi Liesio
p1874
(lp1875
Vjussiliesio
p1876
asVVivekanand Gopalkrishnan
p1877
(lp1878
sVVicente Luque-Centeno
p1879
(lp1880
Vvilucen
p1881
asVHector Plaza
p1882
(lp1883
Valcapotitone
p1884
aV_HectorPlaza
p1885
aVdontit0
p1886
aVplazahector
p1887
aVplazahector16
p1888
aVhectorplazars
p1889
aVhectorplaza1
p1890
aVhplaza50
p1891
aVhhplaza
p1892
aVSparkxx89
p1893
aVHplaza99
p1894
aVHectorPlaza5
p1895
aVplaza_hector
p1896
aVHectorPlaza15
p1897
aVHectorplazamota
p1898
aVletvilla
p1899
aVROLANDOPLAZA
p1900
aVCOMEXHPC
p1901
asVColin Watt
p1902
(lp1903
Vcolinjwatt
p1904
aVColinDWatt
p1905
aVcolinwatt3
p1906
aV_coco16
p1907
aVMrMooncarrot
p1908
aVwattie_72
p1909
aVcolinmwatt
p1910
aVColin88Watt
p1911
aVcolin0001
p1912
aVwemarkethotels
p1913
aVcollybigballs
p1914
aVcolinsjwatt
p1915
aVcolinwatt
p1916
aVcolinwatt167
p1917
aVcolinwatt5
p1918
aVcolinwatt74
p1919
aVcolinwatt2
p1920
aVWattColin
p1921
aVcolin_watt88
p1922
asVMirco Musolesi
p1923
(lp1924
Vmircomusolesi
p1925
asVIrene Muzzetta
p1926
(lp1927
VLoveRiot_
p1928
asVElisa Brugaletta
p1929
(lp1930
sVGaetano Scandariato
p1931
(lp1932
sVCesar Garcia Gomez
p1933
(lp1934
VCesitargarcia
p1935
aVCGarcia_Gomez
p1936
aVCesitarGomez
p1937
aVAlonso2000Gomez
p1938
aVCesaritoGDL41
p1939
aVnecronomicon12
p1940
aVcesargarciagome
p1941
aVcagarciagomez
p1942
aVroucer
p1943
aVCesgarg
p1944
aVCes99Cesar
p1945
aVCsarGarcaGmez
p1946
aVces1234
p1947
aVcesarrgmty
p1948
aVCesarGomezGarc1
p1949
aVcesargomez0368
p1950
aVIngomezCesar
p1951
aVhuetamo2010
p1952
aV12_Cesargargo
p1953
asVAndrea Canino
p1954
(lp1955
VItsAndi_Babe
p1956
aVandreacanino2
p1957
aVandreacanino
p1958
aVandreacanino1
p1959
aVMasterAndre2000
p1960
aVAcquarius58
p1961
asVVito Latora
p1962
(lp1963
Vlincongnito
p1964
aVsquashsquad
p1965
asVmatteo marsili
p1966
(lp1967
VMatteomarsili
p1968
aVyaaarMars
p1969
aV8Marso
p1970
aVmarsili_matteo
p1971
aVMatteo1centro
p1972
aVmattewsganaffa
p1973
aVMarsiliMatteo
p1974
asVManlio De Domenico
p1975
(lp1976
Vmanlius84
p1977
asVLorenzo Vetrano
p1978
(lp1979
VJaRJaR55
p1980
aVairnetto
p1981
asVJure Leskovec
p1982
(lp1983
Vjure
p1984
asVMirko Musumeci
p1985
(lp1986
Vmirkochip84
p1987
aVMirkoMusumeci
p1988
aVMirkosun_MM
p1989
aVMr_allegria90
p1990
asVBlanca Valdivielso
p1991
(lp1992
VBlanxiVal
p1993
aVBlancaValdi
p1994
asVCaterina Prastani
p1995
(lp1996
sVSara Cuenda
p1997
(lp1998
Vscuenda
p1999
asVConstantino Tsallis
p2000
(lp2001
sVJuan Manuel Rodriguez Parrondo
p2002
(lp2003
sVKimmo Kaski
p2004
(lp2005
Vkimmokaski
p2006
aVKimmoKaski1
p2007
asVDaniel Tunkelang
p2008
(lp2009
Vdtunkelang
p2010
asVCarlos Domingo
p2011
(lp2012
Vcarlosdomingo
p2013
asVElisa Censabella
p2014
(lp2015
VECensabella
p2016
asVStefano Ruffo
p2017
(lp2018
Vstefanoruffo93
p2019
aVstefanoruffo
p2020
aVrufusstefano
p2021
aVKlonoa89
p2022
aVRuffoSr
p2023
aVstefano_ruffo
p2024
aVrufus_step
p2025
asVCarlos Sarraute
p2026
(lp2027
Vch4rleston
p2028
aVyiancarlossarra
p2029
asVMegan Cartwright
p2030
(lp2031
Vmegcartwri
p2032
asVSalvatore Viola
p2033
(lp2034
Vperinviola
p2035
asVLorenzo Isella
p2036
(lp2037
Vl_isella
p2038
aVJaRJaR55
p2039
aVlorenzoisella
p2040
aVlorlisiz
p2041
asVSalvatore Bagiante
p2042
(lp2043
Vsbagiante
p2044
asVLuca Zollino
p2045
(lp2046
Vzollozollo
p2047
aVZolluc
p2048
asVRossella Caruso
p2049
(lp2050
VRossellaCaruso
p2051
aVrossellacaruso7
p2052
aVrossellacaruso5
p2053
aVrossellacaruso2
p2054
aVRossellaCaruso3
p2055
aVRossellaCaruso4
p2056
aVDesdemona209
p2057
aVRossella_Caruso
p2058
aVRoxCaruso
p2059
aVRossellaCaruso0
p2060
aVraffyerossella
p2061
aVCaruso89Caruso
p2062
aVRossCaruso
p2063
aVroxyazalea
p2064
aVcarusorossella
p2065
aVrossellacaruso9
p2066
aVrossellacaruso6
p2067
asVChiara Russo
p2068
(lp2069
Vchiaru_goff
p2070
aVchiara_russo
p2071
aVchiararu
p2072
aVchiararusso17
p2073
aVchiararusso2010
p2074
aVChiaraRusso12
p2075
aVSunshineSmile_X
p2076
aVGemmaKiara
p2077
aVTheSaucieWench
p2078
aVchiararusso
p2079
aVchiararusso20
p2080
aVCHIARARUSSO19
p2081
aVchiararusso85
p2082
aVchiararusso10
p2083
aVchiararusso89
p2084
aVchiararusso90
p2085
aVchiararusso4
p2086
aVchiararusso11
p2087
asVAlfredo Pulvirenti
p2088
(lp2089
Vapulvirenti
p2090
aVfreduzzu
p2091
aVMascagna89
p2092
aVPulvirentiA
p2093
aValfredoct86
p2094
asVPere Baleta Ferrer
p2095
(lp2096
sVJocelyn Ross
p2097
(lp2098
Vjocelynross
p2099
asVDominique Van de Sompel
p2100
(lp2101
Vdvdsompel
p2102
asVKartik Anand
p2103
(lp2104
Vkartikanand
p2105
aVKTAnand
p2106
aVkartikanand1
p2107
aVVintage_Wibers
p2108
aVkartikvanand
p2109
aVkaysanand
p2110
aVkartikanand6
p2111
aVkartikanand07
p2112
aVkartikanand7
p2113
aVKartikanand4
p2114
aVKartikanand11
p2115
aVkartikanand8
p2116
aVKARTIKANAND5
p2117
aVkartikanand94
p2118
aVkartikanand10
p2119
aVkartikanand49
p2120
aVkartikanand3
p2121
aVkartikanand28
p2122
aVkartikanand2001
p2123
asVNikolaos Laoutaris
p2124
(lp2125
Vnlaout
p2126
asVFilippo Caruso
p2127
(lp2128
Vfilippocaruso
p2129
aVfilippocaruso96
p2130
aVFilbrickFilippo
p2131
aVfilippocaruso2
p2132
aVFrullotto
p2133
aVfilippo_ct
p2134
aVFilippoStark
p2135
aVBeddazzu75
p2136
aVcarufili
p2137
aVCachinio
p2138
aVcaruso_filippo
p2139
aVrezonico73
p2140
aVcarfil1953
p2141
aVfilippo_caruso
p2142
aVFilippoCaruso1
p2143
aVFilippoZPCaruso
p2144
aV3205647098
p2145
aVcarusofilippo
p2146
aVTheJack81
p2147
aVcarusofilippo1
p2148
asVBruno Goncalves
p2149
(lp2150
Vbgoncalves
p2151
asVRoberta Sinatra
p2152
(lp2153
Vrobysinatra
p2154
asVMario Accolla
p2155
(lp2156
sVNeal Lathia
p2157
(lp2158
Vneal_lathia
p2159
asVAna Fernandez del Rio
p2160
(lp2161
Vcarlotagarcia89
p2162
asVMarika Amantia
p2163
(lp2164
sVLuis Alberto Martinez Vaquero
p2165
(lp2166
VtheALPOstory
p2167
asVAndrea Baronchelli
p2168
(lp2169
Va_baronchelli
p2170
asVHarold Victoria
p2171
(lp2172
VHaroldVictoria
p2173
aVharoldvictoria1
p2174
aVHARKAR0507
p2175
aVkhim_harold
p2176
aVharold_victoria
p2177
aVKhimZel04
p2178
aVhvictoriamadrid
p2179
aVpeejay_03
p2180
aVHarkarvic
p2181
aVauntyveee
p2182
aV2endurealwys
p2183
aVGoatsDoRun
p2184
aV45CHIKKO
p2185
asVRafael Pellon
p2186
(lp2187
Vpellonrafael
p2188
aVrpellontid
p2189
aVrafapellon
p2190
asVJuan Carlos Gomez Carranza
p2191
(lp2192
sVFrancesco Zuccarello
p2193
(lp2194
Vgigiarancino
p2195
aVbongibongibobob
p2196
aVfrancescozucca5
p2197
aVfrancescozucc
p2198
aVcicciozuc
p2199
asVAlessandro Pluchino
p2200
(lp2201
Valexpluchino
p2202
aVMicroOfficial
p2203
aValepluc
p2204
aVsandropluchino
p2205
aVaxxe16
p2206
asVJuancho Candiani
p2207
(lp2208
sVToni Cebrian
p2209
(lp2210
Vtonicebrian
p2211
asVRomualdo Pastor-Satorras
p2212
(lp2213
sVRenaud Lambiotte
p2214
(lp2215
VRenaudLambiotte
p2216
asVLuigi Forte
p2217
(lp2218
Vluigi_forte
p2219
asVMario Scuderi
p2220
(lp2221
Vmarioktm125
p2222
aVMarioScuderi
p2223
aVmarioscuderi2
p2224
aVmarioscuderi1
p2225
aVmarioscuderi3
p2226
aVMariolinho88
p2227
aVmarioscd
p2228
aVMarioScuder
p2229
aVguitaristsc
p2230
aVmario_scuderi
p2231
aVMario__Scuderi
p2232
aVmario3scuderi
p2233
aVMascu976
p2234
aVScuderiTech
p2235
asVRichard Gass
p2236
(lp2237
Vrichardgass
p2238
aVRichPriest
p2239
aVrdgass
p2240
aVRGass1
p2241
aVrichardgass1985
p2242
aVGassconst
p2243
aVcanyouhearmecow
p2244
aVchibowen
p2245
aVGassRick
p2246
aVRichardGass1
p2247
aVRichardDGass
p2248
asVRafael Salazar Novo
p2249
(lp2250
sVBenedetto Carambia
p2251
(lp2252
VceruleoBen
p2253
asVMario Castro
p2254
(lp2255
VCASTROMC
p2256
aVmario_castro
p2257
aVmsaldanac
p2258
aVMario_Castro10
p2259
aVmariocastro95
p2260
aVthemariocastro
p2261
aVmariocastro49
p2262
aVMarioCasep
p2263
aVMarcAstr0
p2264
aVmcastro12
p2265
aVmariocastr
p2266
aVmacastro98
p2267
aVmariocastroLaw
p2268
aVMaquario
p2269
aVjaymcastro
p2270
aVLordMarioOfNY
p2271
aVmariocastro79
p2272
aVNotMarioCastro
p2273
asVDavid Cadenas
p2274
(lp2275
Vdavidcadi
p2276
asVJohn Belchamber
p2277
(lp2278
VJohnBelchamber
p2279
asVUlises Fidalgo Prieto
p2280
(lp2281
sVCesar Hidalgo
p2282
(lp2283
Vcesifoti
p2284
asVFilippo Tartari
p2285
(lp2286
sVAjit Singh
p2287
(lp2288
Vapsinghcdn
p2289
aVAjitsingh45Ajit
p2290
aVAjitsingh35
p2291
aVajittapaswi
p2292
aVsingh_ajeet
p2293
aVajit_p_singh
p2294
aVDaksshAjitSingh
p2295
aVajitsingher
p2296
aVAjitSingh44
p2297
aVajitsingh0
p2298
aVajitsingh_12321
p2299
aVajit23singh
p2300
aVajitsingh1024
p2301
aVajitsingh3182
p2302
aVajitsingh1886
p2303
aVajitsingh_fateh
p2304
aVripplgames
p2305
aVajit_singhh
p2306
aViAjit_
p2307
aVajitsinghyadav
p2308
asVValentina Lepore
p2309
(lp2310
Vvalijolie
p2311
asVCo-Pierre Georg
p2312
(lp2313
Vcogeorg
p2314
asVLuis Amaral
p2315
(lp2316
VLuisdoAmaral
p2317
aVmca
p2318
aVLuisAmaral
p2319
aVamaral_235
p2320
aVluhan_amaral
p2321
aVlpamaral
p2322
aVLuisguto10
p2323
aVluis_amaral_
p2324
aVamaralanderson2
p2325
aVluisfamaral
p2326
aVctefw
p2327
aVLVSAPT
p2328
aVZeMarteloNB
p2329
aVlucarama
p2330
aVLuisAmaralSousa
p2331
aVluisamaral6
p2332
aVluisamaral10
p2333
aVluisamaral9
p2334
aVluisamaral89
p2335
aVluisamaral3
p2336
asVFederico Spada
p2337
(lp2338
VFedericoSpada
p2339
aVFedeSpada1991
p2340
aVFedericoSpada1
p2341
aVfedericospada2
p2342
aVFedeSpada
p2343
aVdanko_80
p2344
aVk141907
p2345
aVfederico_spada
p2346
aVFederico301290
p2347
aVShawnSword
p2348
aVIlTipoKeSpakka
p2349
aVfedericok14
p2350
aVSpadaFederico
p2351
aVpronfulo
p2352
aVfede_spada
p2353
asVElsie Virzi
p2354
(lp2355
sVSotiris Matzanas
p2356
(lp2357
Vmatzanas
p2358
asVRiccardo De Bastiani
p2359
(lp2360
V3_rdb
p2361
aVrikidb1998
p2362
asVAngela Kingyens
p2363
(lp2364
VAngelaKingyens
p2365
asVDavid Ceschia
p2366
(lp2367
VD_DELUISE
p2368
asVTony Chen
p2369
(lp2370
Vtonyschen
p2371
asVEscuelas Elearning Telefonica a+
p2372
(lp2373
sVXavier Anguera
p2374
(lp2375
Vxanguera
p2376
asVLeo Mongendre
p2377
(lp2378
Velquintobeattle
p2379
asVRaul Ortega del Rio
p2380
(lp2381
sVGeorge Lewis
p2382
(lp2383
Viconoscope
p2384
aVschvin
p2385
aVGreenerTweets
p2386
aVgeorgel87105874
p2387
aVWaterMan6960
p2388
aVTwinShadowMusic
p2389
aVGeorgeLewisIV
p2390
aVGeorgePaphiti
p2391
aVGeorgeLewis07
p2392
aVLewisGeorge_
p2393
aVgeorgelewiss
p2394
aVGeorgewalker93
p2395
aVtheotheralso
p2396
aVSporty_George
p2397
aVGeorge_Lewis
p2398
aVGLJr02115
p2399
aVjorge_lewis
p2400
aVSirEllsworth
p2401
aVEGL123
p2402
aVgeorgelewis1710
p2403
asVAndrea Macarie
p2404
(lp2405
Vandreamacarie
p2406
aVItsAndi_Babe
p2407
asVQiankun Zhao
p2408
(lp2409
Vqkzhao
p2410
asVCristina Miccoli
p2411
(lp2412
VCristinaMiccoli
p2413
aVcris_miccoli
p2414
aVmiccolicristina
p2415
aVCristinaMiccol1
p2416
aVMCrisSG
p2417
asVJaime Irastorza
p2418
(lp2419
Vjaimeirastorza
p2420
asVRosa Benito
p2421
(lp2422
VRBenitoOficial
p2423
aVRosaBenitoCFans
p2424
aVrosabenitoF
p2425
aVRBenitoFanClub
p2426
aVROSABENITO
p2427
aVRosaBenitoFan1
p2428
aVRosaBenito1
p2429
aVRosaBenitoFan
p2430
aVRosa_Benito
p2431
aVRosa14_10
p2432
aVrosadebenito
p2433
aVrosebenito
p2434
aVRoussBnt
p2435
aV_rosa_benito_
p2436
aVDOCMATICA
p2437
aVrosabenito50
p2438
aVRositaBeni
p2439
asVGiovanni Russo
p2440
(lp2441
Vrusso_giovanni
p2442
aV_giovannirusso
p2443
aVGioGimic
p2444
aVGiovanni__Russo
p2445
aVgioleafs590
p2446
aVnapolicorazon
p2447
aVfederconvenzion
p2448
aVgiovannirusso26
p2449
aVGiovi1899
p2450
aVGiovanniRusso19
p2451
aVequobar
p2452
aVrussogio54
p2453
aVgiovarusso
p2454
aVgiovannifrusso
p2455
aVgianni_quaranta
p2456
aVataru_73
p2457
aVPhilPraxisRusso
p2458
aVgrid67
p2459
aVGiovanniRusso31
p2460
aVbioeticalab
p2461
asVValerie Bisharat
p2462
(lp2463
VVBisharat
p2464
asVJari Saramaki
p2465
(lp2466
VJariSaramaki
p2467
asVAlberto Rubio Munoz
p2468
(lp2469
VaRubioMunoz
p2470
aValbertomr29
p2471
aVAmrRubio
p2472
asVNiall Wharton
p2473
(lp2474
VNiallWharton
p2475
asVSune Lehmann
p2476
(lp2477
Vsuneman
p2478
asVCarla Miritello
p2479
(lp2480
sVJoanna Cordero
p2481
(lp2482
Vjoannacordero
p2483
aVcorderojbx
p2484
aVyodanis22
p2485
aVlcjoannada
p2486
aV_joannabere
p2487
aVjoannaladiosa
p2488
aVjoanbere
p2489
aVPicky0520
p2490
aVCorderosjwJoann
p2491
aVCorderoJoanna
p2492
aVjpaula00
p2493
aVdiosa1984liveco
p2494
aVJJay2385
p2495
aVmia10157
p2496
aVJoanna_Cordero
p2497
aVJayCord3
p2498
aVjoannacordero2
p2499
aVJoannaCordero1
p2500
aVyodanys18
p2501
asVArnau Gavalda
p2502
(lp2503
VArnauGavalda
p2504
asVEdmundo Jose Huertas Cejudo
p2505
(lp2506
Vehuertasce
p2507
asVAndreea Molnar
p2508
(lp2509
Vandreeamolnar
p2510
aVandreea_molnar
p2511
aVAndreeaMariaMol
p2512
asVLucia Hurtado
p2513
(lp2514
Vluciahgranada
p2515
aVluciahurtadoe
p2516
aVOlgalumusica
p2517
aVLuciaHurtado2
p2518
aVhurtado_lucia
p2519
aVluhurtadoglz
p2520
aVLuciaHurtado99
p2521
aVroseds76
p2522
aVLuciaHurtado98
p2523
aVLuciaHurtado_
p2524
aVlhurtadogarcia
p2525
aVDianaLuciaHurta
p2526
aVLuciaHurtado
p2527
aVluciahurtado1
p2528
aVluciahurtado7
p2529
aVLuciahurtado9
p2530
aVluciahurtado3
p2531
asVMarco Trovato Mascali
p2532
(lp2533
sVCoral Kang
p2534
(lp2535
Vcoral5201314
p2536
asVMarco Alberto Javarone
p2537
(lp2538
sVPedro Concejero
p2539
(lp2540
VConcejeroPedro
p2541
asVAngela Elisa Messina
p2542
(lp2543
sVPablo Rodriguez
p2544
(lp2545
Vpabloryr
p2546
asVBeatriz Martinez
p2547
(lp2548
Vlabeis
p2549
aVbeatriznyc
p2550
aVBeaMa_
p2551
aVBiaMartinez
p2552
aVbeatrizms8
p2553
aVMinuana98
p2554
aVbmartinez001
p2555
aVbeamiranzo
p2556
aVBeaMartinezD
p2557
aVbeapreciousz
p2558
aVbetty0475
p2559
aVbeamartinez6
p2560
aVbea_martinez
p2561
aVbeamtz
p2562
aVmbmartinezr
p2563
aVBea_sc89
p2564
aVBeaMtzC
p2565
aVbebatriz6
p2566
aVBeamartinez97
p2567
aVevamartinez74
p2568
asVGloria Lau
p2569
(lp2570
Vgloriatlau
p2571
aVlau_gloria
p2572
aVglowiie
p2573
aVglorialauRE
p2574
aVglorialau1234
p2575
aVGloriaLau
p2576
aVGloriaAngelLau
p2577
aVDraglorialau
p2578
aVglorialau87
p2579
asVCristina Giordano
p2580
(lp2581
VCristiARTW
p2582
aVxena58
p2583
aVnewoll65
p2584
aVCristinaGiordan
p2585
aVgiordano_cris
p2586
aVCri_Giordano
p2587
aVCristinaGio
p2588
aVgiordanocri
p2589
aVcrilu_1982
p2590
aVCrisJordan93
p2591
aVCry__xD
p2592
aVenzoblackman
p2593
aVTCGiordano
p2594
aVCristina171177
p2595
aVCristinaGiorda9
p2596
aVmcgiord
p2597
aVcristinagiorda3
p2598
aVSexy093
p2599
aVCrys7001
p2600
aVcristinagiorda2
p2601
asVMarcos Vieira
p2602
(lp2603
Vmarcosvieira07
p2604
aVMarcosvieira23
p2605
aVmarcosvieira09
p2606
aVminemonics
p2607
aVmarcos_vieira21
p2608
aVmarcosvieiradep
p2609
aVmrvieira
p2610
aVmarcosvieira01
p2611
aVMarvibar
p2612
aVTravBean
p2613
aVVieiraM
p2614
aV_MarcosAL_
p2615
aVmarcosvieirace
p2616
aVvieiracamargo
p2617
aVMr_MarCosVieiRa
p2618
aVmarcosvieira420
p2619
aVMdemarquinho
p2620
aVmarcosvieira67
p2621
aVmarkosvieira998
p2622
asVAmaia Mugica Achalandabaso
p2623
(lp2624
sVCarlo Altamirano
p2625
(lp2626
Vcarloaltamiran0
p2627
asVBrian Boates
p2628
(lp2629
Vbrianboates
p2630
asVAndre Bach
p2631
(lp2632
VNonnormalizable
p2633
asVElizabeth Davidson
p2634
(lp2635
VElizabeths6
p2636
aVeliz_beth
p2637
aVprizzemphotoart
p2638
aVelizacdav
p2639
aVLizard19
p2640
aVlegsidelizzy
p2641
aVbetsssssssss
p2642
aVbizzylizzy69
p2643
aVmeepbasket
p2644
aVMy_Life_AsLiz_
p2645
aVSTstrikesback
p2646
aVElizzyMarizzy
p2647
aVesdvdsn
p2648
aVElizabeth__Says
p2649
aVFrell422
p2650
aVdusty_heels
p2651
aVFoxtrots5
p2652
aVtisbeth2
p2653
aVRedrockstarr
p2654
aVizabiz
p2655
asVGaetano Fileccia
p2656
(lp2657
sVAndreu Urruela
p2658
(lp2659
Vandreu_urruela
p2660
asS'linkedInNameListOrdered'
p2661
(lp2662
VEsteban Moro
p2663
aVSalvatore Scellato
p2664
aVCarlos Domingo
p2665
aVJure Leskovec
p2666
aVPablo Rodriguez
p2667
aVFrancisco Jose Tavira Sanchez
p2668
aVDaniel Tunkelang
p2669
aVRoberta Sinatra
p2670
aVJake Klamka
p2671
aVXavier Amatriain
p2672
aVMonica Rogati
p2673
aVDominique Van de Sompel
p2674
aVAlejandro Bellogin
p2675
aVBruno Goncalves
p2676
aVLuis Paris Carmona
p2677
aVAndrea Rapisarda
p2678
aVGiuseppe Angilella
p2679
aVToni Cebrian
p2680
aVDaniele Quercia
p2681
aVJari Saramaki
p2682
aVSusana Ferreras
p2683
aVRuben Lara
p2684
aVXavier Anguera
p2685
aVBenedetto Carambia
p2686
aVAlbert Diaz-Guilera
p2687
aVCiro Cattuto
p2688
aVFrancesco Pellegrino
p2689
aVNikhil Goyal
p2690
aVNicola Mingotti
p2691
aVNicola Perra
p2692
aVNicolas Cornwall
p2693
aVMarisa Fatas
p2694
aVTony Chen
p2695
aVFabio Virzi
p2696
aVAlain Barrat
p2697
aVTobias Galla
p2698
aVAlejandro  Jaimes
p2699
aVAntonio Lima
p2700
aVAndre Panisson
p2701
aVKaren Church
p2702
aVDina Papagiannaki
p2703
aVSinan Aral
p2704
aVAndrea Baronchelli
p2705
aVAndre Bach
p2706
aVPeppe Sirchia
p2707
aVTaha Yasseri
p2708
aVFerenc Huszar
p2709
aVMirco Musolesi
p2710
aVNeal Lathia
p2711
aVAdrian Kuhn
p2712
aVSanto Fortunato
p2713
aVSune Lehmann
p2714
aVPetter Holme
p2715
aVVijay Erramilli
p2716
aVMauro Cherubini
p2717
aVVincent Blondel
p2718
aVKeoki Seu
p2719
aVMa Luz Congosto
p2720
aVPedro Concejero
p2721
aVArturo Canales
p2722
aVWouter Van den Broeck
p2723
aVJukka-Pekka Onnela
p2724
aVMegan Cartwright
p2725
aVDavid Millan
p2726
aVCesar Hidalgo
p2727
aVManlio De Domenico
p2728
aVSalvatore Bagiante
p2729
aVTheus Hossmann
p2730
aVEdmundo Jose Huertas Cejudo
p2731
aVMario Konschake
p2732
aVLinas Baltrunas
p2733
aVCharles Wilyman
p2734
aVChristina Whittle
p2735
aVLucian Vlad Lita
p2736
aVSotiris Matzanas
p2737
aVEnzo Nicosia
p2738
aVMat Travizano
p2739
aVEnrica Arcadipane
p2740
aVAdriana Freitas
p2741
aVCristina Brandle
p2742
aVGiovanni Petri
p2743
aVColin Watt
p2744
aVFrancesco Bonchi
p2745
aVRichard Gass
p2746
aVDavid Cadenas
p2747
aVDavid Rodrigues
p2748
aVMichele Tizzoni
p2749
aVPrzemyslaw Grabowicz
p2750
aVCosimo Inserra
p2751
aVGuido Caldarelli
p2752
aVAndrew Manion
p2753
aVAntonio Fontanini
p2754
aVJose Navarro
p2755
aVLuca Naso
p2756
aVDiane Wu
p2757
aVBig Data Spain
p2758
aVIvan Cantador
p2759
aVQiankun Zhao
p2760
aVValentina Lepore
p2761
aVArnau Gavalda
p2762
aVManuel Garcia-Herranz
p2763
aVJavier Galeano
p2764
aVAlessandro Pluchino
p2765
aVSandro Meloni
p2766
aVYan Grunenberger
p2767
aVRenaud Lambiotte
p2768
aVSaul Ares
p2769
aVRita Giordano
p2770
aVFilippo Simini
p2771
aVAlejandro Llorente Pinto
p2772
aVEfraim Feinstein
p2773
aVJanos Kertesz
p2774
aVRonaldo Menezes
p2775
aVRafael Vida Delgado
p2776
aVAjit Singh
p2777
aVMarco Gramaglia
p2778
aVRichard Benjamins
p2779
aVRafael Pellon
p2780
aVAdrien Friggeri
p2781
aVMario Scuderi
p2782
aVLuigi Forte
p2783
aVRocio Martinez Lopez
p2784
aVAndreu Urruela
p2785
aVBrian Boates
p2786
aVAmmad Shaikh
p2787
aVDaniel Olmedilla
p2788
aVDaniele Vilone
p2789
aVMikko Kivela
p2790
aVSara Cuenda
p2791
aVAndrea Macarie
p2792
aVDomenico Gimeli
p2793
aVFlavio Testai
p2794
aVEvans Wadongo
p2795
aVJuan Manuel Molera Molera
p2796
aVJessica Kirkpatrick
p2797
aVLorenzo Isella
p2798
aVJaime Irastorza
p2799
aVSimon de la Rouviere
p2800
aVAmaru Villanueva Rance
p2801
aVSilvia Santalla
p2802
aVAnke Marije Pompstra
p2803
aVEduardo Villatoro
p2804
aVKimmo Kaski
p2805
aVJustin Parrella
p2806
aVMaria Rosaria Gimeli
p2807
aVValerie Bisharat
p2808
aVAngela Kingyens
p2809
aVSamina Taherbhoy
p2810
aVLorenzo Vetrano
p2811
aVAlfredo Pulvirenti
p2812
aVLucia Hurtado
p2813
aVJocelyn Ross
p2814
aVZoe Bogart
p2815
aVCarlo Altamirano
p2816
aVNicola Fusco
p2817
aVNikolaos Laoutaris
p2818
aVEmily Cornwall
p2819
aVHarold Victoria
p2820
aVMichael Sirivianos
p2821
aVElizabeth Davidson
p2822
aVCarlos Roca
p2823
aVFilippo Caruso
p2824
aVGloria Lau
p2825
aVLuis Amaral
p2826
aVRoberto Gutierrez
p2827
aVNuria Oliver
p2828
aVJavier Hernandez
p2829
aVVicente Luque-Centeno
p2830
aVJelena Grujic
p2831
aVJames King
p2832
aVAndrea Sciuto
p2833
aVSalvatore Viola
p2834
aVYiqiao Tang
p2835
aVNiko Gamulin
p2836
aVBlanca Valdivielso
p2837
aVLuca Zollino
p2838
aVAlberto Rubio Munoz
p2839
aVMirko Musumeci
p2840
aVRay Leihe
p2841
aVAna Fernandez del Rio
p2842
aVDAVID TORRES
p2843
aVMarco Berritta
p2844
aVVito Latora
p2845
aVAngel Sanchez
p2846
aVPere Obrador
p2847
aVJose Ramasco
p2848
aVPrakhar Mehrotra
p2849
aVLuis Moyano
p2850
aVDavid Sanz
p2851
aVGiuseppe Gulisano
p2852
aVMarina Delgado
p2853
aVCarlos Rascon Diaz
p2854
aVSvetozar Nesic
p2855
aVNiall Wharton
p2856
aVEnrica Trovato
p2857
aVConcetta Stancampiano
p2858
aVAlexandros Karatzoglou
p2859
aVGianpiero Caruso
p2860
aVGustavo Garza Gaona
p2861
aVEmma Binderup
p2862
aVJosep Larriba-Pey
p2863
aVHeath Hohwald
p2864
aVRomina Rengel
p2865
aVLeo Mongendre
p2866
aVLuis Alberto Martinez Vaquero
p2867
aVElisabetta Curzel
p2868
aVJussi Liesio
p2869
aVAntonio Fernandez Anta
p2870
aVDavid Diaz Vico
p2871
aVSandro Talluto
p2872
aVAlberto Flores Garcia
p2873
aVTijana Delic
p2874
aVEnric Herrero
p2875
aVFilippo Radicchi
p2876
aVCoral Kang
p2877
aVRiccardo De Bastiani
p2878
aVAndreea Molnar
p2879
aVMarco Favetta
p2880
aVOrazio Aiello
p2881
aVPhilippe Marchandise
p2882
aVPaolo Cardile
p2883
aVVincent Fusaro
p2884
aVNoemi Cuocina
p2885
aVXiaoyuan Yang
p2886
aVAlessio Cardillo
p2887
aVRoger Guimera
p2888
aVNadia Gambino
p2889
aVColin Dillard
p2890
aVLaura Muzzetta
p2891
aVFrancesco Zuccarello
p2892
aVMarcin Olek
p2893
aVMarta Tolos
p2894
aVCristina Miccoli
p2895
aVStefano Stanzione
p2896
aVFrancesco Patane'
p2897
aVYamir Moreno
p2898
aVMatteo Marsili
p2899
aVmatteo marsili
p2900
aVStefano Ruffo
p2901
aVPaola La Rocca
p2902
aVGiovanni Di Raffaele
p2903
aVAndrea Canino
p2904
aVCesare Garofalo
p2905
aVGeoff Pritchard
p2906
aVMassimo Cavallaro
p2907
aVSimone Riggi
p2908
aVLaszlo Gyarmati
p2909
aVIrene Muzzetta
p2910
aVLuca Finocchiaro
p2911
aVFederico Spada
p2912
aVFrancisco Jariego
p2913
aVMatteo Nicoli
p2914
aVRobin Dunbar
p2915
aVCesar Garcia Gomez
p2916
aVMario Castro
p2917
aVElisa Censabella
p2918
aVLuis Dinis
p2919
aVAastha Jain
p2920
aVGabriel Martos
p2921
aVAnabela Ferreira
p2922
aVRonald Martinez
p2923
aVChiara Russo
p2924
aVRodrigo de Oliveira
p2925
aVFrancesco Calabrese
p2926
aVAntonino Foti
p2927
aVClaudio Castellano
p2928
aVDavid Ceschia
p2929
aVWarren Mar
p2930
aVJose Capitan
p2931
aVVictor Preciado
p2932
aVLuca Marotta
p2933
aVDaniele D'Angelo
p2934
aVBeatriz Martinez
p2935
aVValentina Giordano
p2936
aVJoanna Cordero
p2937
aVAlberto Robledo
p2938
aVCristina Giordano
p2939
aVDavid Sainz
p2940
aVGiuseppe Greco
p2941
aVFernando Diez
p2942
aVAndrea Zen
p2943
aVMarcos Vieira
p2944
aVLeah McGuire
p2945
aVGeorge Lewis
p2946
aVPatricia Rosso
p2947
aVHector Plaza
p2948
aVEnrique Urrea
p2949
aVRosa Benito
p2950
aVPeter Fishman
p2951
aVLuis Uribe
p2952
aVGregorio Jimenez
p2953
aVJoseph Gallagher
p2954
aVMarta Gonzalez
p2955
aVStefano Messina
p2956
aVKevin Teh
p2957
aVJordi Luque
p2958
aVBarbara Hidalgo
p2959
aVNan Ma
p2960
aVMari Luz Garcia
p2961
aVKartik Anand
p2962
aVCheng Wang
p2963
aVAntonio Greco
p2964
aVJoaquin Gonzalez
p2965
aVGiovanni Russo
p2966
aVVictor Soto
p2967
aVVicente Salas
p2968
aVJavier Rodriguez Laguna
p2969
aVManuel Gomez Rodriguez
p2970
aVAngela Lahee
p2971
aVLuigi Di Caro
p2972
aVRaffaele Poli
p2973
aVRoberto Lo Savio
p2974
aVRossella Caruso
p2975
aVDaniel Goddemeyer
p2976
aVCarlos Sarraute
p2977
aVBen Angel
p2978
aVVictor Llorente
p2979
aVCo-Pierre Georg
p2980
aVJohn Belchamber
p2981
aVDaidone Bruno
p2982
aVMorena Pappalardo
p2983
aVGiuseppe Davide Paparo
p2984
aVAnna-Lena Fraund
p2985
aVVivekanand Gopalkrishnan
p2986
aVDario Patane
p2987
aVNiccolo' Stamboglis
p2988
aVKonstantinos Trantopoulos
p2989
aVMarika Amantia
p2990
aVJuan Manuel Rodriguez Parrondo
p2991
aVRoman Chuhay
p2992
aVFroilan Dopico
p2993
aVGaetano Fileccia
p2994
aVUlises Fidalgo Prieto
p2995
aVCarla Miritello
p2996
aVAngela Elisa Messina
p2997
aVMarites Leticia Corro Espinosa
p2998
aVMayank Lahiri
p2999
aVMARY LUZ MOURONTE LOPEZ
p3000
aVJuan Antonio Candiani
p3001
aVErik Van der Straeten
p3002
aVFlora Mercorillo
p3003
aVGaetano Scandariato
p3004
aVSalvatore Turrise
p3005
aVRomualdo Pastor-Satorras
p3006
aVRafael Salazar Novo
p3007
aVCaterina Prastani
p3008
aVCristina Soguero Ruiz
p3009
aVAranzazu Castillo Pachon
p3010
aVKate Cognard Dullea PsyD.
p3011
aVJuancho Candiani
p3012
aVMassimiliano Chiorboli
p3013
aVConstantino Tsallis
p3014
aVLuis Villarrubia Grande
p3015
aVElsie Virzi
p3016
aVRodolfo Cuerno
p3017
aVGianluca Santagati
p3018
aVEmanuele Francesco Pecora
p3019
aVIgnacio Serna Zaplana
p3020
aVClaudia MM Sinatra
p3021
aVLorenzo Di Silvestro
p3022
aVMiguel Plovins Pico
p3023
aVPere Baleta Ferrer
p3024
aVGuillermo Suarez de Tangil
p3025
aVJuan Carlos Gomez Carranza
p3026
aVAntonio Massimiliano Mio
p3027
aVClaudia Agliozzo
p3028
aVMarco Alberto Javarone
p3029
aVDomenico Giustiniano
p3030
aVRamis Movassagh
p3031
aVMarco Trovato Mascali
p3032
aVAmaia Mugica Achalandabaso
p3033
aVFilippo Tartari
p3034
aVMa Purificacion Ruiz Cid
p3035
aVDavid Lopes Pegna
p3036
aVMario Accolla
p3037
aVEscuelas Elearning Telefonica a+
p3038
aVHaewoon Kwak
p3039
aVRaul Ortega del Rio
p3040
aVVanessa Frias-Martinez
p3041
aVAndre Karpitenko
p3042
aVElisa Brugaletta
p3043
aVDanilo Jaccarino
p3044
aVFrancesca Giacoppo
p3045
aVPedro Alonso Baigorri
p3046
aVDavide Bordenca
p3047
aVDavid Camino Blasco
p3048
aVGabriele Guglielmino
p3049
asVNicolas Cornwall
p3050
(lp3051
Vkaaliss
p3052
aVnicolascornwall
p3053
aVnicornwall
p3054
asVWouter Van den Broeck
p3055
(lp3056
Vaddith
p3057
asVClaudia Agliozzo
p3058
(lp3059
sVVictor Preciado
p3060
(lp3061
Vvictorpreciado5
p3062
aVpreciadovm
p3063
aVVictorPreciado9
p3064
aVvic_preciado
p3065
aVPreciadoVictor
p3066
aVcomisariowoody
p3067
aVvictorpreciado
p3068
aVvictorpreciado2
p3069
aVvictorpreciado1
p3070
aV_victorpreciado
p3071
aVvpreciado14
p3072
aVVictor_Preciado
p3073
aVvictormpreciado
p3074
aVvitormpc
p3075
aVVictorDohdy24
p3076
aVvictorhotch
p3077
aVbabiib0ii
p3078
aVVictorPrecia2
p3079
aVVictorPreciado8
p3080
aVvikofres
p3081
as.